; Function Attrs: mustprogress uwtable
define dso_local void @_ZN2EA4StdC8Callback4StopEv(ptr noundef nonnull align 8 dereferenceable(80) %this) local_unnamed_addr #1 align 2 personality ptr @__gxx_personality_v0 {
entry:
  %mbStarted = getelementptr inbounds i8, ptr %this, i64 52
  %0 = load atomic i32, ptr %mbStarted seq_cst, align 4
  %tobool.not = icmp eq i32 %0, 0
  br i1 %tobool.not, label %if.end7, label %if.then

if.then:                                          ; preds = %entry
  %mpCallbackManager = getelementptr inbounds i8, ptr %this, i64 24
  %1 = load ptr, ptr %mpCallbackManager, align 8
  %vtable = load ptr, ptr %1, align 8
  %vfn = getelementptr inbounds i8, ptr %vtable, i64 48
  %2 = load ptr, ptr %vfn, align 8
  %call2 = tail call noundef zeroext i1 %2(ptr noundef nonnull align 8 dereferenceable(8) %1, ptr noundef nonnull %this)
  store atomic i32 0, ptr %mbStarted seq_cst, align 4
  %mbEnableRefCount = getelementptr inbounds i8, ptr %this, i64 57
  %3 = load i8, ptr %mbEnableRefCount, align 1
  %4 = and i8 %3, 1
  %tobool5.not = icmp eq i8 %4, 0
  br i1 %tobool5.not, label %if.end7, label %if.then6

if.then6:                                         ; preds = %if.then
  %mpFunction.i.i = getelementptr inbounds i8, ptr %this, i64 32
  %5 = load ptr, ptr %mpFunction.i.i, align 8
  %tobool.not.i.i = icmp eq ptr %5, null
  br i1 %tobool.not.i.i, label %if.end7, label %if.then.i.i

if.then.i.i:                                      ; preds = %if.then6
  %mpFunctionArg.i.i = getelementptr inbounds i8, ptr %this, i64 40
  %6 = load ptr, ptr %mpFunctionArg.i.i, align 8
  tail call void %5(ptr noundef nonnull %this, ptr noundef %6, i64 noundef 1, i64 noundef 0)
  br label %if.end7

if.end7:                                          ; preds = %if.then.i.i, %if.then6, %if.then, %entry
  ret void
}